; Function Attrs: mustprogress uwtable
define hidden void @_ZN19OpenColorIO_v2_4dev27GammaMoncurveMirrorOpCPUFwdC2ERSt10shared_ptrIKNS_11GammaOpDataEE(ptr noundef nonnull align 8 dereferenceable(88) %this, ptr nocapture noundef nonnull readonly align 8 dereferenceable(16) %gamma) unnamed_addr #3 align 2 personality ptr @__gxx_personality_v0 {
entry:
  %m_red.i = getelementptr inbounds i8, ptr %this, i64 8
  store <4 x float> <float 1.000000e+00, float 0.000000e+00, float 0.000000e+00, float 1.000000e+00>, ptr %m_red.i, align 8
  %scale.i.i = getelementptr inbounds i8, ptr %this, i64 24
  %m_green.i = getelementptr inbounds i8, ptr %this, i64 28
  store <4 x float> <float 1.000000e+00, float 1.000000e+00, float 0.000000e+00, float 0.000000e+00>, ptr %scale.i.i, align 8
  %slope.i3.i = getelementptr inbounds i8, ptr %this, i64 40
  %m_blue.i = getelementptr inbounds i8, ptr %this, i64 48
  store <4 x float> <float 1.000000e+00, float 1.000000e+00, float 1.000000e+00, float 0.000000e+00>, ptr %slope.i3.i, align 8
  %breakPnt.i6.i = getelementptr inbounds i8, ptr %this, i64 56
  %m_alpha.i = getelementptr inbounds i8, ptr %this, i64 68
  store <4 x float> <float 0.000000e+00, float 1.000000e+00, float 1.000000e+00, float 1.000000e+00>, ptr %breakPnt.i6.i, align 8
  %offset.i9.i = getelementptr inbounds i8, ptr %this, i64 72
  store <4 x float> <float 0.000000e+00, float 0.000000e+00, float 1.000000e+00, float 1.000000e+00>, ptr %offset.i9.i, align 8
  store ptr getelementptr inbounds ({ [8 x ptr] }, ptr @_ZTVN19OpenColorIO_v2_4dev27GammaMoncurveMirrorOpCPUFwdE, i64 0, i32 0, i64 2), ptr %this, align 8
  %0 = load ptr, ptr %gamma, align 8
  %m_redParams.i.i = getelementptr inbounds i8, ptr %0, i64 176
  tail call void @_ZN19OpenColorIO_v2_4dev16ComputeParamsFwdERKSt6vectorIdSaIdEERNS_14RendererParamsE(ptr noundef nonnull align 8 dereferenceable(24) %m_redParams.i.i, ptr noundef nonnull align 4 dereferenceable(20) %m_red.i)
  %1 = load ptr, ptr %gamma, align 8
  %m_greenParams.i.i = getelementptr inbounds i8, ptr %1, i64 200
  tail call void @_ZN19OpenColorIO_v2_4dev16ComputeParamsFwdERKSt6vectorIdSaIdEERNS_14RendererParamsE(ptr noundef nonnull align 8 dereferenceable(24) %m_greenParams.i.i, ptr noundef nonnull align 4 dereferenceable(20) %m_green.i)
  %2 = load ptr, ptr %gamma, align 8
  %m_blueParams.i.i = getelementptr inbounds i8, ptr %2, i64 224
  tail call void @_ZN19OpenColorIO_v2_4dev16ComputeParamsFwdERKSt6vectorIdSaIdEERNS_14RendererParamsE(ptr noundef nonnull align 8 dereferenceable(24) %m_blueParams.i.i, ptr noundef nonnull align 4 dereferenceable(20) %m_blue.i)
  %3 = load ptr, ptr %gamma, align 8
  %m_alphaParams.i.i = getelementptr inbounds i8, ptr %3, i64 248
  tail call void @_ZN19OpenColorIO_v2_4dev16ComputeParamsFwdERKSt6vectorIdSaIdEERNS_14RendererParamsE(ptr noundef nonnull align 8 dereferenceable(24) %m_alphaParams.i.i, ptr noundef nonnull align 4 dereferenceable(20) %m_alpha.i)
  ret void
}